target datalayout = "e-m:e-p270:32:32-p271:32:32-p272:64:64-i64:64-i128:128-f80:128-n8:16:32:64-S128"
target triple = "x86_64-unknown-linux-gnu"

%"class.std::__cxx11::basic_string" = type { %"struct.std::__cxx11::basic_string<char>::_Alloc_hider", i64, %union.anon }
%"struct.std::__cxx11::basic_string<char>::_Alloc_hider" = type { ptr }
%union.anon = type { i64, [8 x i8] }
%"class.rocksdb::(anonymous namespace)::SkipListRep::Iterator" = type { %"class.rocksdb::MemTableRep::Iterator", %"class.rocksdb::InlineSkipList<const rocksdb::MemTableRep::KeyComparator &>::Iterator", %"class.std::__cxx11::basic_string" }
%"class.rocksdb::MemTableRep::Iterator" = type { ptr }
%"class.rocksdb::InlineSkipList<const rocksdb::MemTableRep::KeyComparator &>::Iterator" = type { ptr, ptr }

; Function Attrs: mustprogress uwtable
define internal void @_ZN7rocksdb12_GLOBAL__N_111SkipListRep8Iterator11SeekForPrevERKNS_5SliceEPKc(ptr noundef nonnull align 8 dereferenceable(56) %this, ptr noundef nonnull align 8 dereferenceable(16) %user_key, ptr noundef %memtable_key) unnamed_addr #0 align 2 {
entry:
  %this.addr = alloca ptr, align 8
  %user_key.addr = alloca ptr, align 8
  %memtable_key.addr = alloca ptr, align 8
  store ptr %this, ptr %this.addr, align 8
  store ptr %user_key, ptr %user_key.addr, align 8
  store ptr %memtable_key, ptr %memtable_key.addr, align 8
  %this1 = load ptr, ptr %this.addr, align 8
  %0 = load ptr, ptr %memtable_key.addr, align 8
  %cmp = icmp ne ptr %0, null
  br i1 %cmp, label %if.then, label %if.else

if.then:                                          ; preds = %entry
  %iter_ = getelementptr inbounds %"class.rocksdb::(anonymous namespace)::SkipListRep::Iterator", ptr %this1, i32 0, i32 1
  %1 = load ptr, ptr %memtable_key.addr, align 8
  call void @_ZN7rocksdb14InlineSkipListIRKNS_11MemTableRep13KeyComparatorEE8Iterator11SeekForPrevEPKc(ptr noundef nonnull align 8 dereferenceable(16) %iter_, ptr noundef %1)
  br label %if.end

if.else:                                          ; preds = %entry
  %iter_2 = getelementptr inbounds %"class.rocksdb::(anonymous namespace)::SkipListRep::Iterator", ptr %this1, i32 0, i32 1
  %tmp_ = getelementptr inbounds %"class.rocksdb::(anonymous namespace)::SkipListRep::Iterator", ptr %this1, i32 0, i32 2
  %2 = load ptr, ptr %user_key.addr, align 8
  %call = call noundef ptr @_ZN7rocksdb9EncodeKeyEPNSt7__cxx1112basic_stringIcSt11char_traitsIcESaIcEEERKNS_5SliceE(ptr noundef %tmp_, ptr noundef nonnull align 8 dereferenceable(16) %2)
  call void @_ZN7rocksdb14InlineSkipListIRKNS_11MemTableRep13KeyComparatorEE8Iterator11SeekForPrevEPKc(ptr noundef nonnull align 8 dereferenceable(16) %iter_2, ptr noundef %call)
  br label %if.end

if.end:                                           ; preds = %if.else, %if.then
  ret void
}